; ModuleID = '46/860.c'
source_filename = "46/860.c"
target datalayout = "e-m:e-p270:32:32-p271:32:32-p272:64:64-i64:64-f80:128-n8:16:32:64-S128"
target triple = "x86_64-pc-linux-gnu"

@.str = private unnamed_addr constant [5 x i8] c"%d%d\00", align 1
@.str.1 = private unnamed_addr constant [3 x i8] c"%d\00", align 1
@.str.2 = private unnamed_addr constant [4 x i8] c"%d\0A\00", align 1

; Function Attrs: noinline nounwind uwtable
define dso_local i32 @main() #0 {
  %1 = alloca i32, align 4
  %2 = alloca i32, align 4
  %3 = alloca i32, align 4
  %4 = alloca i32, align 4
  %5 = alloca i32, align 4
  %6 = alloca i32, align 4
  %7 = alloca [100 x [100 x i32]], align 16
  %8 = alloca i32, align 4
  %9 = alloca i32, align 4
  %10 = alloca i32, align 4
  %11 = alloca i32, align 4
  store i32 0, i32* %1, align 4
  %12 = call i32 (i8*, ...) @__isoc99_scanf(i8* getelementptr inbounds ([5 x i8], [5 x i8]* @.str, i64 0, i64 0), i32* %5, i32* %6)
  %13 = load i32, i32* %5, align 4
  %14 = load i32, i32* %6, align 4
  %15 = icmp sge i32 %13, %14
  br i1 %15, label %16, label %19

16:                                               ; preds = %0
  %17 = load i32, i32* %6, align 4
  %18 = sdiv i32 %17, 2
  store i32 %18, i32* %4, align 4
  br label %22

19:                                               ; preds = %0
  %20 = load i32, i32* %5, align 4
  %21 = sdiv i32 %20, 2
  store i32 %21, i32* %4, align 4
  br label %22

22:                                               ; preds = %19, %16
  store i32 0, i32* %2, align 4
  br label %23

23:                                               ; preds = %44, %22
  %24 = load i32, i32* %2, align 4
  %25 = load i32, i32* %5, align 4
  %26 = icmp slt i32 %24, %25
  br i1 %26, label %27, label %47

27:                                               ; preds = %23
  store i32 0, i32* %3, align 4
  br label %28

28:                                               ; preds = %40, %27
  %29 = load i32, i32* %3, align 4
  %30 = load i32, i32* %6, align 4
  %31 = icmp slt i32 %29, %30
  br i1 %31, label %32, label %43

32:                                               ; preds = %28
  %33 = load i32, i32* %2, align 4
  %34 = sext i32 %33 to i64
  %35 = getelementptr inbounds [100 x [100 x i32]], [100 x [100 x i32]]* %7, i64 0, i64 %34
  %36 = load i32, i32* %3, align 4
  %37 = sext i32 %36 to i64
  %38 = getelementptr inbounds [100 x i32], [100 x i32]* %35, i64 0, i64 %37
  %39 = call i32 (i8*, ...) @__isoc99_scanf(i8* getelementptr inbounds ([3 x i8], [3 x i8]* @.str.1, i64 0, i64 0), i32* %38)
  br label %40

40:                                               ; preds = %32
  %41 = load i32, i32* %3, align 4
  %42 = add nsw i32 %41, 1
  store i32 %42, i32* %3, align 4
  br label %28

43:                                               ; preds = %28
  br label %44

44:                                               ; preds = %43
  %45 = load i32, i32* %2, align 4
  %46 = add nsw i32 %45, 1
  store i32 %46, i32* %2, align 4
  br label %23

47:                                               ; preds = %23
  %48 = load i32, i32* %5, align 4
  %49 = sub nsw i32 %48, 1
  store i32 %49, i32* %8, align 4
  store i32 0, i32* %9, align 4
  %50 = load i32, i32* %6, align 4
  %51 = sub nsw i32 %50, 1
  store i32 %51, i32* %10, align 4
  store i32 0, i32* %11, align 4
  store i32 0, i32* %2, align 4
  br label %52

52:                                               ; preds = %137, %47
  %53 = load i32, i32* %2, align 4
  %54 = load i32, i32* %4, align 4
  %55 = icmp slt i32 %53, %54
  br i1 %55, label %56, label %140

56:                                               ; preds = %52
  %57 = load i32, i32* %11, align 4
  store i32 %57, i32* %3, align 4
  br label %58

58:                                               ; preds = %71, %56
  %59 = load i32, i32* %3, align 4
  %60 = load i32, i32* %10, align 4
  %61 = icmp slt i32 %59, %60
  br i1 %61, label %62, label %74

62:                                               ; preds = %58
  %63 = load i32, i32* %9, align 4
  %64 = sext i32 %63 to i64
  %65 = getelementptr inbounds [100 x [100 x i32]], [100 x [100 x i32]]* %7, i64 0, i64 %64
  %66 = load i32, i32* %3, align 4
  %67 = sext i32 %66 to i64
  %68 = getelementptr inbounds [100 x i32], [100 x i32]* %65, i64 0, i64 %67
  %69 = load i32, i32* %68, align 4
  %70 = call i32 (i8*, ...) @printf(i8* getelementptr inbounds ([4 x i8], [4 x i8]* @.str.2, i64 0, i64 0), i32 %69)
  br label %71

71:                                               ; preds = %62
  %72 = load i32, i32* %3, align 4
  %73 = add nsw i32 %72, 1
  store i32 %73, i32* %3, align 4
  br label %58

74:                                               ; preds = %58
  %75 = load i32, i32* %9, align 4
  store i32 %75, i32* %3, align 4
  br label %76

76:                                               ; preds = %89, %74
  %77 = load i32, i32* %3, align 4
  %78 = load i32, i32* %8, align 4
  %79 = icmp slt i32 %77, %78
  br i1 %79, label %80, label %92

80:                                               ; preds = %76
  %81 = load i32, i32* %3, align 4
  %82 = sext i32 %81 to i64
  %83 = getelementptr inbounds [100 x [100 x i32]], [100 x [100 x i32]]* %7, i64 0, i64 %82
  %84 = load i32, i32* %10, align 4
  %85 = sext i32 %84 to i64
  %86 = getelementptr inbounds [100 x i32], [100 x i32]* %83, i64 0, i64 %85
  %87 = load i32, i32* %86, align 4
  %88 = call i32 (i8*, ...) @printf(i8* getelementptr inbounds ([4 x i8], [4 x i8]* @.str.2, i64 0, i64 0), i32 %87)
  br label %89

89:                                               ; preds = %80
  %90 = load i32, i32* %3, align 4
  %91 = add nsw i32 %90, 1
  store i32 %91, i32* %3, align 4
  br label %76

92:                                               ; preds = %76
  %93 = load i32, i32* %10, align 4
  store i32 %93, i32* %3, align 4
  br label %94

94:                                               ; preds = %107, %92
  %95 = load i32, i32* %3, align 4
  %96 = load i32, i32* %11, align 4
  %97 = icmp sgt i32 %95, %96
  br i1 %97, label %98, label %110

98:                                               ; preds = %94
  %99 = load i32, i32* %8, align 4
  %100 = sext i32 %99 to i64
  %101 = getelementptr inbounds [100 x [100 x i32]], [100 x [100 x i32]]* %7, i64 0, i64 %100
  %102 = load i32, i32* %3, align 4
  %103 = sext i32 %102 to i64
  %104 = getelementptr inbounds [100 x i32], [100 x i32]* %101, i64 0, i64 %103
  %105 = load i32, i32* %104, align 4
  %106 = call i32 (i8*, ...) @printf(i8* getelementptr inbounds ([4 x i8], [4 x i8]* @.str.2, i64 0, i64 0), i32 %105)
  br label %107

107:                                              ; preds = %98
  %108 = load i32, i32* %3, align 4
  %109 = add nsw i32 %108, -1
  store i32 %109, i32* %3, align 4
  br label %94

110:                                              ; preds = %94
  %111 = load i32, i32* %8, align 4
  store i32 %111, i32* %3, align 4
  br label %112

112:                                              ; preds = %125, %110
  %113 = load i32, i32* %3, align 4
  %114 = load i32, i32* %9, align 4
  %115 = icmp sgt i32 %113, %114
  br i1 %115, label %116, label %128

116:                                              ; preds = %112
  %117 = load i32, i32* %3, align 4
  %118 = sext i32 %117 to i64
  %119 = getelementptr inbounds [100 x [100 x i32]], [100 x [100 x i32]]* %7, i64 0, i64 %118
  %120 = load i32, i32* %11, align 4
  %121 = sext i32 %120 to i64
  %122 = getelementptr inbounds [100 x i32], [100 x i32]* %119, i64 0, i64 %121
  %123 = load i32, i32* %122, align 4
  %124 = call i32 (i8*, ...) @printf(i8* getelementptr inbounds ([4 x i8], [4 x i8]* @.str.2, i64 0, i64 0), i32 %123)
  br label %125

125:                                              ; preds = %116
  %126 = load i32, i32* %3, align 4
  %127 = add nsw i32 %126, -1
  store i32 %127, i32* %3, align 4
  br label %112

128:                                              ; preds = %112
  %129 = load i32, i32* %8, align 4
  %130 = sub nsw i32 %129, 1
  store i32 %130, i32* %8, align 4
  %131 = load i32, i32* %9, align 4
  %132 = add nsw i32 %131, 1
  store i32 %132, i32* %9, align 4
  %133 = load i32, i32* %10, align 4
  %134 = sub nsw i32 %133, 1
  store i32 %134, i32* %10, align 4
  %135 = load i32, i32* %11, align 4
  %136 = add nsw i32 %135, 1
  store i32 %136, i32* %11, align 4
  br label %137

137:                                              ; preds = %128
  %138 = load i32, i32* %2, align 4
  %139 = add nsw i32 %138, 1
  store i32 %139, i32* %2, align 4
  br label %52

140:                                              ; preds = %52
  %141 = load i32, i32* %6, align 4
  %142 = srem i32 %141, 2
  %143 = icmp ne i32 %142, 0
  br i1 %143, label %144, label %170

144:                                              ; preds = %140
  %145 = load i32, i32* %5, align 4
  %146 = load i32, i32* %6, align 4
  %147 = icmp sge i32 %145, %146
  br i1 %147, label %148, label %170

148:                                              ; preds = %144
  %149 = load i32, i32* %4, align 4
  store i32 %149, i32* %2, align 4
  br label %150

150:                                              ; preds = %166, %148
  %151 = load i32, i32* %2, align 4
  %152 = load i32, i32* %5, align 4
  %153 = load i32, i32* %4, align 4
  %154 = sub nsw i32 %152, %153
  %155 = icmp slt i32 %151, %154
  br i1 %155, label %156, label %169

156:                                              ; preds = %150
  %157 = load i32, i32* %2, align 4
  %158 = sext i32 %157 to i64
  %159 = getelementptr inbounds [100 x [100 x i32]], [100 x [100 x i32]]* %7, i64 0, i64 %158
  %160 = load i32, i32* %6, align 4
  %161 = sdiv i32 %160, 2
  %162 = sext i32 %161 to i64
  %163 = getelementptr inbounds [100 x i32], [100 x i32]* %159, i64 0, i64 %162
  %164 = load i32, i32* %163, align 4
  %165 = call i32 (i8*, ...) @printf(i8* getelementptr inbounds ([4 x i8], [4 x i8]* @.str.2, i64 0, i64 0), i32 %164)
  br label %166

166:                                              ; preds = %156
  %167 = load i32, i32* %2, align 4
  %168 = add nsw i32 %167, 1
  store i32 %168, i32* %2, align 4
  br label %150

169:                                              ; preds = %150
  br label %201

170:                                              ; preds = %144, %140
  %171 = load i32, i32* %5, align 4
  %172 = srem i32 %171, 2
  %173 = icmp ne i32 %172, 0
  br i1 %173, label %174, label %200

174:                                              ; preds = %170
  %175 = load i32, i32* %5, align 4
  %176 = load i32, i32* %6, align 4
  %177 = icmp sle i32 %175, %176
  br i1 %177, label %178, label %200

178:                                              ; preds = %174
  %179 = load i32, i32* %4, align 4
  store i32 %179, i32* %2, align 4
  br label %180

180:                                              ; preds = %196, %178
  %181 = load i32, i32* %2, align 4
  %182 = load i32, i32* %6, align 4
  %183 = load i32, i32* %4, align 4
  %184 = sub nsw i32 %182, %183
  %185 = icmp slt i32 %181, %184
  br i1 %185, label %186, label %199

186:                                              ; preds = %180
  %187 = load i32, i32* %5, align 4
  %188 = sdiv i32 %187, 2
  %189 = sext i32 %188 to i64
  %190 = getelementptr inbounds [100 x [100 x i32]], [100 x [100 x i32]]* %7, i64 0, i64 %189
  %191 = load i32, i32* %2, align 4
  %192 = sext i32 %191 to i64
  %193 = getelementptr inbounds [100 x i32], [100 x i32]* %190, i64 0, i64 %192
  %194 = load i32, i32* %193, align 4
  %195 = call i32 (i8*, ...) @printf(i8* getelementptr inbounds ([4 x i8], [4 x i8]* @.str.2, i64 0, i64 0), i32 %194)
  br label %196

196:                                              ; preds = %186
  %197 = load i32, i32* %2, align 4
  %198 = add nsw i32 %197, 1
  store i32 %198, i32* %2, align 4
  br label %180

199:                                              ; preds = %180
  br label %200

200:                                              ; preds = %199, %174, %170
  br label %201

201:                                              ; preds = %200, %169
  ret i32 0
}

declare dso_local i32 @__isoc99_scanf(i8*, ...) #1

declare dso_local i32 @printf(i8*, ...) #1


!llvm.module.flags = !{!0}
!llvm.ident = !{!1}

!0 = !{i32 1, !"wchar_size", i32 4}
!1 = !{!"clang version 10.0.0-4ubuntu1 "}
